#include <math.h>
#include <stdio.h>
#include <stdlib.h>
#include <string.h>

int main()
{
	double a,j;
	int n,m,b=0,c=1,i,q;
	char s1[510],s2[510];
	scanf("%lf",&a);
	scanf("%s",s1);
	scanf("%s",s2);
	n=strlen(s1);
	m=strlen(s2);
	if(n!=m)
		c=0;	
	for(i=0;i<n;i++){
		if(s1[i]!='A'&&s1[i]!='T'&&s1[i]!='C'&&s1[i]!='G'){
			c=0;
			break;
		}
	}		
	for(q=0;q<m;q++){
		if(s2[q]!='A'&&s2[q]!='T'&&s2[q]!='C'&&s2[q]!='G'){
			c=0;
			break;
		}
	}
	for(i=0;i<n;i++){
		if(s1[i]==s2[i])
			b++;
	}
	j=(double)b/n;
	if(c==1){
		if(j>=a)
			printf("yes");
		else
			printf("no");
	}
	else
		printf("error");
	return 0;
}
		
