; ModuleID = '5/174.c'
source_filename = "5/174.c"
target datalayout = "e-m:e-p270:32:32-p271:32:32-p272:64:64-i64:64-f80:128-n8:16:32:64-S128"
target triple = "x86_64-pc-linux-gnu"

@.str = private unnamed_addr constant [4 x i8] c"%lf\00", align 1
@.str.1 = private unnamed_addr constant [3 x i8] c"%s\00", align 1
@.str.2 = private unnamed_addr constant [4 x i8] c"yes\00", align 1
@.str.3 = private unnamed_addr constant [3 x i8] c"no\00", align 1
@.str.4 = private unnamed_addr constant [6 x i8] c"error\00", align 1

; Function Attrs: noinline nounwind uwtable
define dso_local i32 @main() #0 {
  %1 = alloca i32, align 4
  %2 = alloca double, align 8
  %3 = alloca double, align 8
  %4 = alloca i32, align 4
  %5 = alloca i32, align 4
  %6 = alloca i32, align 4
  %7 = alloca i32, align 4
  %8 = alloca i32, align 4
  %9 = alloca i32, align 4
  %10 = alloca [510 x i8], align 16
  %11 = alloca [510 x i8], align 16
  store i32 0, i32* %1, align 4
  store i32 0, i32* %6, align 4
  store i32 1, i32* %7, align 4
  %12 = call i32 (i8*, ...) @__isoc99_scanf(i8* getelementptr inbounds ([4 x i8], [4 x i8]* @.str, i64 0, i64 0), double* %2)
  %13 = getelementptr inbounds [510 x i8], [510 x i8]* %10, i64 0, i64 0
  %14 = call i32 (i8*, ...) @__isoc99_scanf(i8* getelementptr inbounds ([3 x i8], [3 x i8]* @.str.1, i64 0, i64 0), i8* %13)
  %15 = getelementptr inbounds [510 x i8], [510 x i8]* %11, i64 0, i64 0
  %16 = call i32 (i8*, ...) @__isoc99_scanf(i8* getelementptr inbounds ([3 x i8], [3 x i8]* @.str.1, i64 0, i64 0), i8* %15)
  %17 = getelementptr inbounds [510 x i8], [510 x i8]* %10, i64 0, i64 0
  %18 = call i64 @strlen(i8* %17) #3
  %19 = trunc i64 %18 to i32
  store i32 %19, i32* %4, align 4
  %20 = getelementptr inbounds [510 x i8], [510 x i8]* %11, i64 0, i64 0
  %21 = call i64 @strlen(i8* %20) #3
  %22 = trunc i64 %21 to i32
  store i32 %22, i32* %5, align 4
  %23 = load i32, i32* %4, align 4
  %24 = load i32, i32* %5, align 4
  %25 = icmp ne i32 %23, %24
  br i1 %25, label %26, label %27

26:                                               ; preds = %0
  store i32 0, i32* %7, align 4
  br label %27

27:                                               ; preds = %26, %0
  store i32 0, i32* %8, align 4
  br label %28

28:                                               ; preds = %62, %27
  %29 = load i32, i32* %8, align 4
  %30 = load i32, i32* %4, align 4
  %31 = icmp slt i32 %29, %30
  br i1 %31, label %32, label %65

32:                                               ; preds = %28
  %33 = load i32, i32* %8, align 4
  %34 = sext i32 %33 to i64
  %35 = getelementptr inbounds [510 x i8], [510 x i8]* %10, i64 0, i64 %34
  %36 = load i8, i8* %35, align 1
  %37 = sext i8 %36 to i32
  %38 = icmp ne i32 %37, 65
  br i1 %38, label %39, label %61

39:                                               ; preds = %32
  %40 = load i32, i32* %8, align 4
  %41 = sext i32 %40 to i64
  %42 = getelementptr inbounds [510 x i8], [510 x i8]* %10, i64 0, i64 %41
  %43 = load i8, i8* %42, align 1
  %44 = sext i8 %43 to i32
  %45 = icmp ne i32 %44, 84
  br i1 %45, label %46, label %61

46:                                               ; preds = %39
  %47 = load i32, i32* %8, align 4
  %48 = sext i32 %47 to i64
  %49 = getelementptr inbounds [510 x i8], [510 x i8]* %10, i64 0, i64 %48
  %50 = load i8, i8* %49, align 1
  %51 = sext i8 %50 to i32
  %52 = icmp ne i32 %51, 67
  br i1 %52, label %53, label %61

53:                                               ; preds = %46
  %54 = load i32, i32* %8, align 4
  %55 = sext i32 %54 to i64
  %56 = getelementptr inbounds [510 x i8], [510 x i8]* %10, i64 0, i64 %55
  %57 = load i8, i8* %56, align 1
  %58 = sext i8 %57 to i32
  %59 = icmp ne i32 %58, 71
  br i1 %59, label %60, label %61

60:                                               ; preds = %53
  store i32 0, i32* %7, align 4
  br label %65

61:                                               ; preds = %53, %46, %39, %32
  br label %62

62:                                               ; preds = %61
  %63 = load i32, i32* %8, align 4
  %64 = add nsw i32 %63, 1
  store i32 %64, i32* %8, align 4
  br label %28

65:                                               ; preds = %60, %28
  store i32 0, i32* %9, align 4
  br label %66

66:                                               ; preds = %100, %65
  %67 = load i32, i32* %9, align 4
  %68 = load i32, i32* %5, align 4
  %69 = icmp slt i32 %67, %68
  br i1 %69, label %70, label %103

70:                                               ; preds = %66
  %71 = load i32, i32* %9, align 4
  %72 = sext i32 %71 to i64
  %73 = getelementptr inbounds [510 x i8], [510 x i8]* %11, i64 0, i64 %72
  %74 = load i8, i8* %73, align 1
  %75 = sext i8 %74 to i32
  %76 = icmp ne i32 %75, 65
  br i1 %76, label %77, label %99

77:                                               ; preds = %70
  %78 = load i32, i32* %9, align 4
  %79 = sext i32 %78 to i64
  %80 = getelementptr inbounds [510 x i8], [510 x i8]* %11, i64 0, i64 %79
  %81 = load i8, i8* %80, align 1
  %82 = sext i8 %81 to i32
  %83 = icmp ne i32 %82, 84
  br i1 %83, label %84, label %99

84:                                               ; preds = %77
  %85 = load i32, i32* %9, align 4
  %86 = sext i32 %85 to i64
  %87 = getelementptr inbounds [510 x i8], [510 x i8]* %11, i64 0, i64 %86
  %88 = load i8, i8* %87, align 1
  %89 = sext i8 %88 to i32
  %90 = icmp ne i32 %89, 67
  br i1 %90, label %91, label %99

91:                                               ; preds = %84
  %92 = load i32, i32* %9, align 4
  %93 = sext i32 %92 to i64
  %94 = getelementptr inbounds [510 x i8], [510 x i8]* %11, i64 0, i64 %93
  %95 = load i8, i8* %94, align 1
  %96 = sext i8 %95 to i32
  %97 = icmp ne i32 %96, 71
  br i1 %97, label %98, label %99

98:                                               ; preds = %91
  store i32 0, i32* %7, align 4
  br label %103

99:                                               ; preds = %91, %84, %77, %70
  br label %100

100:                                              ; preds = %99
  %101 = load i32, i32* %9, align 4
  %102 = add nsw i32 %101, 1
  store i32 %102, i32* %9, align 4
  br label %66

103:                                              ; preds = %98, %66
  store i32 0, i32* %8, align 4
  br label %104

104:                                              ; preds = %124, %103
  %105 = load i32, i32* %8, align 4
  %106 = load i32, i32* %4, align 4
  %107 = icmp slt i32 %105, %106
  br i1 %107, label %108, label %127

108:                                              ; preds = %104
  %109 = load i32, i32* %8, align 4
  %110 = sext i32 %109 to i64
  %111 = getelementptr inbounds [510 x i8], [510 x i8]* %10, i64 0, i64 %110
  %112 = load i8, i8* %111, align 1
  %113 = sext i8 %112 to i32
  %114 = load i32, i32* %8, align 4
  %115 = sext i32 %114 to i64
  %116 = getelementptr inbounds [510 x i8], [510 x i8]* %11, i64 0, i64 %115
  %117 = load i8, i8* %116, align 1
  %118 = sext i8 %117 to i32
  %119 = icmp eq i32 %113, %118
  br i1 %119, label %120, label %123

120:                                              ; preds = %108
  %121 = load i32, i32* %6, align 4
  %122 = add nsw i32 %121, 1
  store i32 %122, i32* %6, align 4
  br label %123

123:                                              ; preds = %120, %108
  br label %124

124:                                              ; preds = %123
  %125 = load i32, i32* %8, align 4
  %126 = add nsw i32 %125, 1
  store i32 %126, i32* %8, align 4
  br label %104

127:                                              ; preds = %104
  %128 = load i32, i32* %6, align 4
  %129 = sitofp i32 %128 to double
  %130 = load i32, i32* %4, align 4
  %131 = sitofp i32 %130 to double
  %132 = fdiv double %129, %131
  store double %132, double* %3, align 8
  %133 = load i32, i32* %7, align 4
  %134 = icmp eq i32 %133, 1
  br i1 %134, label %135, label %144

135:                                              ; preds = %127
  %136 = load double, double* %3, align 8
  %137 = load double, double* %2, align 8
  %138 = fcmp oge double %136, %137
  br i1 %138, label %139, label %141

139:                                              ; preds = %135
  %140 = call i32 (i8*, ...) @printf(i8* getelementptr inbounds ([4 x i8], [4 x i8]* @.str.2, i64 0, i64 0))
  br label %143

141:                                              ; preds = %135
  %142 = call i32 (i8*, ...) @printf(i8* getelementptr inbounds ([3 x i8], [3 x i8]* @.str.3, i64 0, i64 0))
  br label %143

143:                                              ; preds = %141, %139
  br label %146

144:                                              ; preds = %127
  %145 = call i32 (i8*, ...) @printf(i8* getelementptr inbounds ([6 x i8], [6 x i8]* @.str.4, i64 0, i64 0))
  br label %146

146:                                              ; preds = %144, %143
  ret i32 0
}

declare dso_local i32 @__isoc99_scanf(i8*, ...) #1

; Function Attrs: nounwind readonly
declare dso_local i64 @strlen(i8*) #2

declare dso_local i32 @printf(i8*, ...) #1


!llvm.module.flags = !{!0}
!llvm.ident = !{!1}

!0 = !{i32 1, !"wchar_size", i32 4}
!1 = !{!"clang version 10.0.0-4ubuntu1 "}
